target datalayout = "e-m:e-p270:32:32-p271:32:32-p272:64:64-i64:64-i128:128-f80:128-n8:16:32:64-S128"
target triple = "x86_64-pc-linux-gnu"

%"struct.Luau::AstName" = type { ptr }
%"class.Luau::AstExpr.base" = type { %"class.Luau::AstNode.base" }
%"class.Luau::AstNode.base" = type <{ ptr, i32, %"struct.Luau::Location" }>
%"struct.Luau::Location" = type { %"struct.Luau::Position", %"struct.Luau::Position" }
%"struct.Luau::Position" = type { i32, i32 }
%"class.Luau::AstExprIndexName" = type <{ %"class.Luau::AstExpr.base", [4 x i8], ptr, %"struct.Luau::AstName", %"struct.Luau::Location", %"struct.Luau::Position", i8, [7 x i8] }>
%"class.Luau::AstExprGlobal" = type { %"class.Luau::AstExpr.base", %"struct.Luau::AstName" }
%"class.Luau::AstNode" = type <{ ptr, i32, %"struct.Luau::Location", [4 x i8] }>
%"class.Luau::DenseHashMap.29" = type { %"class.Luau::detail::DenseHashTable.30" }
%"class.Luau::detail::DenseHashTable.30" = type <{ ptr, i64, i64, %"struct.Luau::AstName", [8 x i8] }>
%"struct.std::pair.162" = type <{ %"struct.Luau::AstName", i32, [4 x i8] }>

@_ZN4Luau7AstRttiINS_13AstExprGlobalEE5valueE = linkonce_odr dso_local global i32 0, comdat, align 4

; Function Attrs: mustprogress nounwind uwtable
define linkonce_odr dso_local noundef zeroext i1 @_ZNK4Luau7AstNameeqERKS0_(ptr noundef nonnull align 8 dereferenceable(8) %0, ptr noundef nonnull align 8 dereferenceable(8) %1) #4 comdat align 2 {
  %3 = alloca ptr, align 8
  %4 = alloca ptr, align 8
  store ptr %0, ptr %3, align 8, !tbaa !64
  store ptr %1, ptr %4, align 8, !tbaa !64
  %5 = load ptr, ptr %3, align 8
  %6 = getelementptr inbounds nuw %"struct.Luau::AstName", ptr %5, i32 0, i32 0
  %7 = load ptr, ptr %6, align 8, !tbaa !66
  %8 = load ptr, ptr %4, align 8, !tbaa !64
  %9 = getelementptr inbounds nuw %"struct.Luau::AstName", ptr %8, i32 0, i32 0
  %10 = load ptr, ptr %9, align 8, !tbaa !66
  %11 = icmp eq ptr %7, %10
  ret i1 %11
}

; Function Attrs: mustprogress nounwind uwtable
define linkonce_odr dso_local noundef nonnull align 8 dereferenceable(8) ptr @_ZN4Luau6detail16ItemInterfaceMapINS_7AstNameENS_7Compile6GlobalEE6getKeyERKSt4pairIS2_S4_E(ptr noundef nonnull align 8 dereferenceable(12) %0) #4 comdat align 2 {
  %2 = alloca ptr, align 8
  store ptr %0, ptr %2, align 8, !tbaa !452
  %3 = load ptr, ptr %2, align 8, !tbaa !452
  %4 = getelementptr inbounds nuw %"struct.std::pair.162", ptr %3, i32 0, i32 0
  ret ptr %4
}

; Function Attrs: mustprogress nounwind uwtable
define linkonce_odr dso_local noundef i64 @_ZNKSt4hashIN4Luau7AstNameEEclERKS1_(ptr noundef nonnull align 1 dereferenceable(1) %0, ptr noundef nonnull align 8 dereferenceable(8) %1) #4 comdat align 2 {
  %3 = alloca ptr, align 8
  %4 = alloca ptr, align 8
  store ptr %0, ptr %3, align 8, !tbaa !367
  store ptr %1, ptr %4, align 8, !tbaa !64
  %5 = load ptr, ptr %4, align 8, !tbaa !64
  %6 = getelementptr inbounds nuw %"struct.Luau::AstName", ptr %5, i32 0, i32 0
  %7 = load ptr, ptr %6, align 8, !tbaa !66
  %8 = ptrtoint ptr %7 to i64
  %9 = lshr i64 %8, 4
  %10 = load ptr, ptr %4, align 8, !tbaa !64
  %11 = getelementptr inbounds nuw %"struct.Luau::AstName", ptr %10, i32 0, i32 0
  %12 = load ptr, ptr %11, align 8, !tbaa !66
  %13 = ptrtoint ptr %12 to i64
  %14 = lshr i64 %13, 9
  %15 = xor i64 %9, %14
  ret i64 %15
}

; Function Attrs: mustprogress uwtable
define linkonce_odr dso_local noundef zeroext i1 @_ZNKSt8equal_toIN4Luau7AstNameEEclERKS1_S4_(ptr noundef nonnull align 1 dereferenceable(1) %0, ptr noundef nonnull align 8 dereferenceable(8) %1, ptr noundef nonnull align 8 dereferenceable(8) %2) #2 comdat align 2 {
  %4 = alloca ptr, align 8
  %5 = alloca ptr, align 8
  %6 = alloca ptr, align 8
  store ptr %0, ptr %4, align 8, !tbaa !365
  store ptr %1, ptr %5, align 8, !tbaa !64
  store ptr %2, ptr %6, align 8, !tbaa !64
  %7 = load ptr, ptr %5, align 8, !tbaa !64
  %8 = load ptr, ptr %6, align 8, !tbaa !64
  %9 = call noundef zeroext i1 @_ZNK4Luau7AstNameeqERKS0_(ptr noundef nonnull align 8 dereferenceable(8) %7, ptr noundef nonnull align 8 dereferenceable(8) %8)
  ret i1 %9
}

; Function Attrs: mustprogress uwtable
define linkonce_odr dso_local noundef ptr @_ZNK4Luau6detail14DenseHashTableINS_7AstNameESt4pairIS2_NS_7Compile6GlobalEES3_IKS2_S5_ENS0_16ItemInterfaceMapIS2_S5_EESt4hashIS2_ESt8equal_toIS2_EE4findERS7_(ptr noundef nonnull align 8 dereferenceable(34) %0, ptr noundef nonnull align 8 dereferenceable(8) %1) #2 comdat align 2 {
  %3 = alloca ptr, align 8
  %4 = alloca ptr, align 8
  %5 = alloca ptr, align 8
  %6 = alloca i64, align 8
  %7 = alloca i64, align 8
  %8 = alloca i64, align 8
  %9 = alloca i32, align 4
  %10 = alloca ptr, align 8
  store ptr %0, ptr %4, align 8, !tbaa !454
  store ptr %1, ptr %5, align 8, !tbaa !64
  %11 = load ptr, ptr %4, align 8
  %12 = getelementptr inbounds nuw %"class.Luau::detail::DenseHashTable.30", ptr %11, i32 0, i32 2
  %13 = load i64, ptr %12, align 8, !tbaa !456
  %14 = icmp eq i64 %13, 0
  br i1 %14, label %15, label %16

15:                                               ; preds = %2
  store ptr null, ptr %3, align 8
  br label %72

16:                                               ; preds = %2
  %17 = getelementptr inbounds i8, ptr %11, i64 33
  %18 = load ptr, ptr %5, align 8, !tbaa !64
  %19 = getelementptr inbounds nuw %"class.Luau::detail::DenseHashTable.30", ptr %11, i32 0, i32 3
  %20 = call noundef zeroext i1 @_ZNKSt8equal_toIN4Luau7AstNameEEclERKS1_S4_(ptr noundef nonnull align 1 dereferenceable(1) %17, ptr noundef nonnull align 8 dereferenceable(8) %18, ptr noundef nonnull align 8 dereferenceable(8) %19)
  br i1 %20, label %21, label %22

21:                                               ; preds = %16
  store ptr null, ptr %3, align 8
  br label %72

22:                                               ; preds = %16
  call void @llvm.lifetime.start.p0(i64 8, ptr %6) #15
  %23 = getelementptr inbounds nuw %"class.Luau::detail::DenseHashTable.30", ptr %11, i32 0, i32 1
  %24 = load i64, ptr %23, align 8, !tbaa !458
  %25 = sub i64 %24, 1
  store i64 %25, ptr %6, align 8, !tbaa !69
  call void @llvm.lifetime.start.p0(i64 8, ptr %7) #15
  %26 = getelementptr inbounds i8, ptr %11, i64 32
  %27 = load ptr, ptr %5, align 8, !tbaa !64
  %28 = call noundef i64 @_ZNKSt4hashIN4Luau7AstNameEEclERKS1_(ptr noundef nonnull align 1 dereferenceable(1) %26, ptr noundef nonnull align 8 dereferenceable(8) %27)
  %29 = load i64, ptr %6, align 8, !tbaa !69
  %30 = and i64 %28, %29
  store i64 %30, ptr %7, align 8, !tbaa !69
  call void @llvm.lifetime.start.p0(i64 8, ptr %8) #15
  store i64 0, ptr %8, align 8, !tbaa !69
  br label %31

31:                                               ; preds = %65, %22
  %32 = load i64, ptr %8, align 8, !tbaa !69
  %33 = load i64, ptr %6, align 8, !tbaa !69
  %34 = icmp ule i64 %32, %33
  br i1 %34, label %36, label %35

35:                                               ; preds = %31
  store i32 2, ptr %9, align 4
  br label %68

36:                                               ; preds = %31
  call void @llvm.lifetime.start.p0(i64 8, ptr %10) #15
  %37 = getelementptr inbounds nuw %"class.Luau::detail::DenseHashTable.30", ptr %11, i32 0, i32 0
  %38 = load ptr, ptr %37, align 8, !tbaa !459
  %39 = load i64, ptr %7, align 8, !tbaa !69
  %40 = getelementptr inbounds nuw %"struct.std::pair.162", ptr %38, i64 %39
  store ptr %40, ptr %10, align 8, !tbaa !452
  %41 = getelementptr inbounds i8, ptr %11, i64 33
  %42 = load ptr, ptr %10, align 8, !tbaa !452
  %43 = call noundef nonnull align 8 dereferenceable(8) ptr @_ZN4Luau6detail16ItemInterfaceMapINS_7AstNameENS_7Compile6GlobalEE6getKeyERKSt4pairIS2_S4_E(ptr noundef nonnull align 8 dereferenceable(12) %42)
  %44 = load ptr, ptr %5, align 8, !tbaa !64
  %45 = call noundef zeroext i1 @_ZNKSt8equal_toIN4Luau7AstNameEEclERKS1_S4_(ptr noundef nonnull align 1 dereferenceable(1) %41, ptr noundef nonnull align 8 dereferenceable(8) %43, ptr noundef nonnull align 8 dereferenceable(8) %44)
  br i1 %45, label %46, label %48

46:                                               ; preds = %36
  %47 = load ptr, ptr %10, align 8, !tbaa !452
  store ptr %47, ptr %3, align 8
  store i32 1, ptr %9, align 4
  br label %62

48:                                               ; preds = %36
  %49 = getelementptr inbounds i8, ptr %11, i64 33
  %50 = load ptr, ptr %10, align 8, !tbaa !452
  %51 = call noundef nonnull align 8 dereferenceable(8) ptr @_ZN4Luau6detail16ItemInterfaceMapINS_7AstNameENS_7Compile6GlobalEE6getKeyERKSt4pairIS2_S4_E(ptr noundef nonnull align 8 dereferenceable(12) %50)
  %52 = getelementptr inbounds nuw %"class.Luau::detail::DenseHashTable.30", ptr %11, i32 0, i32 3
  %53 = call noundef zeroext i1 @_ZNKSt8equal_toIN4Luau7AstNameEEclERKS1_S4_(ptr noundef nonnull align 1 dereferenceable(1) %49, ptr noundef nonnull align 8 dereferenceable(8) %51, ptr noundef nonnull align 8 dereferenceable(8) %52)
  br i1 %53, label %54, label %55

54:                                               ; preds = %48
  store ptr null, ptr %3, align 8
  store i32 1, ptr %9, align 4
  br label %62

55:                                               ; preds = %48
  %56 = load i64, ptr %7, align 8, !tbaa !69
  %57 = load i64, ptr %8, align 8, !tbaa !69
  %58 = add i64 %56, %57
  %59 = add i64 %58, 1
  %60 = load i64, ptr %6, align 8, !tbaa !69
  %61 = and i64 %59, %60
  store i64 %61, ptr %7, align 8, !tbaa !69
  store i32 0, ptr %9, align 4
  br label %62

62:                                               ; preds = %55, %54, %46
  call void @llvm.lifetime.end.p0(i64 8, ptr %10) #15
  %63 = load i32, ptr %9, align 4
  switch i32 %63, label %68 [
    i32 0, label %64
  ]

64:                                               ; preds = %62
  br label %65

65:                                               ; preds = %64
  %66 = load i64, ptr %8, align 8, !tbaa !69
  %67 = add i64 %66, 1
  store i64 %67, ptr %8, align 8, !tbaa !69
  br label %31, !llvm.loop !460

68:                                               ; preds = %62, %35
  call void @llvm.lifetime.end.p0(i64 8, ptr %8) #15
  %69 = load i32, ptr %9, align 4
  switch i32 %69, label %71 [
    i32 2, label %70
  ]

70:                                               ; preds = %68
  store ptr null, ptr %3, align 8
  store i32 1, ptr %9, align 4
  br label %71

71:                                               ; preds = %70, %68
  call void @llvm.lifetime.end.p0(i64 8, ptr %7) #15
  call void @llvm.lifetime.end.p0(i64 8, ptr %6) #15
  br label %72

72:                                               ; preds = %71, %21, %15
  %73 = load ptr, ptr %3, align 8
  ret ptr %73
}

; Function Attrs: mustprogress uwtable
define linkonce_odr dso_local noundef ptr @_ZNK4Luau12DenseHashMapINS_7AstNameENS_7Compile6GlobalESt4hashIS1_ESt8equal_toIS1_EE4findERKS1_(ptr noundef nonnull align 8 dereferenceable(40) %0, ptr noundef nonnull align 8 dereferenceable(8) %1) #2 comdat align 2 {
  %3 = alloca ptr, align 8
  %4 = alloca ptr, align 8
  %5 = alloca ptr, align 8
  store ptr %0, ptr %3, align 8, !tbaa !25
  store ptr %1, ptr %4, align 8, !tbaa !64
  %6 = load ptr, ptr %3, align 8
  call void @llvm.lifetime.start.p0(i64 8, ptr %5) #15
  %7 = getelementptr inbounds nuw %"class.Luau::DenseHashMap.29", ptr %6, i32 0, i32 0
  %8 = load ptr, ptr %4, align 8, !tbaa !64
  %9 = call noundef ptr @_ZNK4Luau6detail14DenseHashTableINS_7AstNameESt4pairIS2_NS_7Compile6GlobalEES3_IKS2_S5_ENS0_16ItemInterfaceMapIS2_S5_EESt4hashIS2_ESt8equal_toIS2_EE4findERS7_(ptr noundef nonnull align 8 dereferenceable(34) %7, ptr noundef nonnull align 8 dereferenceable(8) %8)
  store ptr %9, ptr %5, align 8, !tbaa !452
  %10 = load ptr, ptr %5, align 8, !tbaa !452
  %11 = icmp ne ptr %10, null
  br i1 %11, label %12, label %15

12:                                               ; preds = %2
  %13 = load ptr, ptr %5, align 8, !tbaa !452
  %14 = getelementptr inbounds nuw %"struct.std::pair.162", ptr %13, i32 0, i32 1
  br label %16

15:                                               ; preds = %2
  br label %16

16:                                               ; preds = %15, %12
  %17 = phi ptr [ %14, %12 ], [ null, %15 ]
  call void @llvm.lifetime.end.p0(i64 8, ptr %5) #15
  ret ptr %17
}

; Function Attrs: mustprogress nounwind uwtable
define linkonce_odr dso_local noundef i32 @_ZN4Luau13AstExprGlobal10ClassIndexEv() #4 comdat align 2 {
  %1 = load i32, ptr @_ZN4Luau7AstRttiINS_13AstExprGlobalEE5valueE, align 4, !tbaa !4
  ret i32 %1
}

; Function Attrs: mustprogress nounwind uwtable
define linkonce_odr dso_local noundef zeroext i1 @_ZNK4Luau7AstNameeqEPKc(ptr noundef nonnull align 8 dereferenceable(8) %0, ptr noundef %1) #4 comdat align 2 {
  %3 = alloca ptr, align 8
  %4 = alloca ptr, align 8
  store ptr %0, ptr %3, align 8, !tbaa !64
  store ptr %1, ptr %4, align 8, !tbaa !17
  %5 = load ptr, ptr %3, align 8
  %6 = getelementptr inbounds nuw %"struct.Luau::AstName", ptr %5, i32 0, i32 0
  %7 = load ptr, ptr %6, align 8, !tbaa !66
  %8 = icmp ne ptr %7, null
  br i1 %8, label %9, label %15

9:                                                ; preds = %2
  %10 = getelementptr inbounds nuw %"struct.Luau::AstName", ptr %5, i32 0, i32 0
  %11 = load ptr, ptr %10, align 8, !tbaa !66
  %12 = load ptr, ptr %4, align 8, !tbaa !17
  %13 = call i32 @strcmp(ptr noundef %11, ptr noundef %12) #19
  %14 = icmp eq i32 %13, 0
  br label %15

15:                                               ; preds = %9, %2
  %16 = phi i1 [ false, %2 ], [ %14, %9 ]
  ret i1 %16
}

; Function Attrs: inlinehint mustprogress uwtable
define linkonce_odr dso_local noundef i32 @_ZN4Luau7Compile14getGlobalStateERKNS_12DenseHashMapINS_7AstNameENS0_6GlobalESt4hashIS2_ESt8equal_toIS2_EEES2_(ptr noundef nonnull align 8 dereferenceable(40) %0, ptr %1) #9 comdat {
  %3 = alloca %"struct.Luau::AstName", align 8
  %4 = alloca ptr, align 8
  %5 = alloca ptr, align 8
  %6 = getelementptr inbounds nuw %"struct.Luau::AstName", ptr %3, i32 0, i32 0
  store ptr %1, ptr %6, align 8
  store ptr %0, ptr %4, align 8, !tbaa !25
  call void @llvm.lifetime.start.p0(i64 8, ptr %5) #15
  %7 = load ptr, ptr %4, align 8, !tbaa !25
  %8 = call noundef ptr @_ZNK4Luau12DenseHashMapINS_7AstNameENS_7Compile6GlobalESt4hashIS1_ESt8equal_toIS1_EE4findERKS1_(ptr noundef nonnull align 8 dereferenceable(40) %7, ptr noundef nonnull align 8 dereferenceable(8) %3)
  store ptr %8, ptr %5, align 8, !tbaa !27
  %9 = load ptr, ptr %5, align 8, !tbaa !27
  %10 = icmp ne ptr %9, null
  br i1 %10, label %11, label %14

11:                                               ; preds = %2
  %12 = load ptr, ptr %5, align 8, !tbaa !27
  %13 = load i32, ptr %12, align 4, !tbaa !450
  br label %15

14:                                               ; preds = %2
  br label %15

15:                                               ; preds = %14, %11
  %16 = phi i32 [ %13, %11 ], [ 0, %14 ]
  call void @llvm.lifetime.end.p0(i64 8, ptr %5) #15
  ret i32 %16
}

; Function Attrs: mustprogress uwtable
define linkonce_odr dso_local noundef ptr @_ZN4Luau7AstNode2asINS_13AstExprGlobalEEEPT_v(ptr noundef nonnull align 8 dereferenceable(28) %0) #2 comdat align 2 {
  %2 = alloca ptr, align 8
  store ptr %0, ptr %2, align 8, !tbaa !15
  %3 = load ptr, ptr %2, align 8
  %4 = getelementptr inbounds nuw %"class.Luau::AstNode", ptr %3, i32 0, i32 1
  %5 = load i32, ptr %4, align 8, !tbaa !357
  %6 = call noundef i32 @_ZN4Luau13AstExprGlobal10ClassIndexEv()
  %7 = icmp eq i32 %5, %6
  br i1 %7, label %8, label %9

8:                                                ; preds = %1
  br label %10

9:                                                ; preds = %1
  br label %10

10:                                               ; preds = %9, %8
  %11 = phi ptr [ %3, %8 ], [ null, %9 ]
  ret ptr %11
}

; Function Attrs: mustprogress uwtable
define internal noundef zeroext i1 @_ZN4LuauL22isMatchingGlobalMemberERKNS_12DenseHashMapINS_7AstNameENS_7Compile6GlobalESt4hashIS1_ESt8equal_toIS1_EEEPNS_16AstExprIndexNameEPKcSE_(ptr noundef nonnull align 8 dereferenceable(40) %0, ptr noundef %1, ptr noundef %2, ptr noundef %3) #2 {
  %5 = alloca i1, align 1
  %6 = alloca ptr, align 8
  %7 = alloca ptr, align 8
  %8 = alloca ptr, align 8
  %9 = alloca ptr, align 8
  %10 = alloca ptr, align 8
  %11 = alloca %"struct.Luau::AstName", align 8
  %12 = alloca i32, align 4
  store ptr %0, ptr %6, align 8, !tbaa !25
  store ptr %1, ptr %7, align 8, !tbaa !129
  store ptr %2, ptr %8, align 8, !tbaa !17
  store ptr %3, ptr %9, align 8, !tbaa !17
  call void @llvm.lifetime.start.p0(i64 8, ptr %10) #15
  %13 = load ptr, ptr %7, align 8, !tbaa !129
  %14 = getelementptr inbounds nuw %"class.Luau::AstExprIndexName", ptr %13, i32 0, i32 2
  %15 = load ptr, ptr %14, align 8, !tbaa !131
  %16 = call noundef ptr @_ZN4Luau7AstNode2asINS_13AstExprGlobalEEEPT_v(ptr noundef nonnull align 8 dereferenceable(28) %15)
  store ptr %16, ptr %10, align 8, !tbaa !120
  %17 = load ptr, ptr %10, align 8, !tbaa !120
  %18 = icmp ne ptr %17, null
  br i1 %18, label %19, label %39

19:                                               ; preds = %4
  %20 = load ptr, ptr %6, align 8, !tbaa !25
  %21 = load ptr, ptr %10, align 8, !tbaa !120
  %22 = getelementptr inbounds nuw %"class.Luau::AstExprGlobal", ptr %21, i32 0, i32 1
  call void @llvm.memcpy.p0.p0.i64(ptr align 8 %11, ptr align 8 %22, i64 8, i1 false), !tbaa.struct !299
  %23 = getelementptr inbounds nuw %"struct.Luau::AstName", ptr %11, i32 0, i32 0
  %24 = load ptr, ptr %23, align 8
  %25 = call noundef i32 @_ZN4Luau7Compile14getGlobalStateERKNS_12DenseHashMapINS_7AstNameENS0_6GlobalESt4hashIS2_ESt8equal_toIS2_EEES2_(ptr noundef nonnull align 8 dereferenceable(40) %20, ptr %24)
  %26 = icmp eq i32 %25, 0
  br i1 %26, label %27, label %37

27:                                               ; preds = %19
  %28 = load ptr, ptr %10, align 8, !tbaa !120
  %29 = getelementptr inbounds nuw %"class.Luau::AstExprGlobal", ptr %28, i32 0, i32 1
  %30 = load ptr, ptr %8, align 8, !tbaa !17
  %31 = call noundef zeroext i1 @_ZNK4Luau7AstNameeqEPKc(ptr noundef nonnull align 8 dereferenceable(8) %29, ptr noundef %30)
  br i1 %31, label %32, label %37

32:                                               ; preds = %27
  %33 = load ptr, ptr %7, align 8, !tbaa !129
  %34 = getelementptr inbounds nuw %"class.Luau::AstExprIndexName", ptr %33, i32 0, i32 3
  %35 = load ptr, ptr %9, align 8, !tbaa !17
  %36 = call noundef zeroext i1 @_ZNK4Luau7AstNameeqEPKc(ptr noundef nonnull align 8 dereferenceable(8) %34, ptr noundef %35)
  br label %37

37:                                               ; preds = %32, %27, %19
  %38 = phi i1 [ false, %27 ], [ false, %19 ], [ %36, %32 ]
  store i1 %38, ptr %5, align 1
  store i32 1, ptr %12, align 4
  br label %40

39:                                               ; preds = %4
  store i32 0, ptr %12, align 4
  br label %40

40:                                               ; preds = %39, %37
  call void @llvm.lifetime.end.p0(i64 8, ptr %10) #15
  %41 = load i32, ptr %12, align 4
  switch i32 %41, label %45 [
    i32 0, label %42
    i32 1, label %43
  ]

42:                                               ; preds = %40
  store i1 false, ptr %5, align 1
  br label %43

43:                                               ; preds = %42, %40
  %44 = load i1, ptr %5, align 1
  ret i1 %44

45:                                               ; preds = %40
  unreachable
}