; Function Attrs: mustprogress nofree nounwind willreturn memory(read, inaccessiblemem: none) uwtable
define internal fastcc noundef zeroext i1 @_ZN4LuauL22isMatchingGlobalMemberERKNS_12DenseHashMapINS_7AstNameENS_7Compile6GlobalESt4hashIS1_ESt8equal_toIS1_EEEPNS_16AstExprIndexNameEPKcSE_(ptr noundef nonnull readonly align 8 captures(none) dereferenceable(40) %0, ptr noundef readonly captures(none) %1, ptr noundef readonly captures(none) %2) unnamed_addr #10 {
  %4 = getelementptr inbounds nuw i8, ptr %1, i64 32
  %5 = load ptr, ptr %4, align 8, !tbaa !95
  %6 = getelementptr inbounds nuw i8, ptr %5, i64 8
  %7 = load i32, ptr %6, align 8, !tbaa !97
  %8 = load i32, ptr @_ZN4Luau7AstRttiINS_13AstExprGlobalEE5valueE, align 4, !tbaa !4
  %9 = icmp eq i32 %7, %8
  %.not1 = icmp ne ptr %5, null
  %.not.not.not = and i1 %.not1, %9
  br i1 %.not.not.not, label %10, label %_ZNK4Luau7AstNameeqEPKc.exit12

10:                                               ; preds = %3
  %11 = getelementptr inbounds nuw i8, ptr %5, i64 32
  %.sroa.0.0.copyload = load ptr, ptr %11, align 8, !tbaa !216
  %12 = getelementptr inbounds nuw i8, ptr %0, i64 16
  %13 = load i64, ptr %12, align 8, !tbaa !217
  %14 = icmp eq i64 %13, 0
  br i1 %14, label %_ZN4Luau7Compile14getGlobalStateERKNS_12DenseHashMapINS_7AstNameENS0_6GlobalESt4hashIS2_ESt8equal_toIS2_EEES2_.exit.thread, label %15

15:                                               ; preds = %10
  %16 = getelementptr inbounds nuw i8, ptr %0, i64 24
  %17 = load ptr, ptr %16, align 8, !tbaa !102
  %18 = icmp eq ptr %.sroa.0.0.copyload, %17
  br i1 %18, label %_ZN4Luau7Compile14getGlobalStateERKNS_12DenseHashMapINS_7AstNameENS0_6GlobalESt4hashIS2_ESt8equal_toIS2_EEES2_.exit.thread, label %19

19:                                               ; preds = %15
  %20 = getelementptr inbounds nuw i8, ptr %0, i64 8
  %21 = load i64, ptr %20, align 8, !tbaa !220
  %22 = add i64 %21, -1
  %23 = ptrtoint ptr %.sroa.0.0.copyload to i64
  %24 = lshr i64 %23, 4
  %25 = lshr i64 %23, 9
  %26 = xor i64 %24, %25
  %27 = load ptr, ptr %0, align 8, !tbaa !221
  br label %28

28:                                               ; preds = %34, %19
  %.pn.i.i.i = phi i64 [ %26, %19 ], [ %36, %34 ]
  %.02028.i.i.i = phi i64 [ 0, %19 ], [ %35, %34 ]
  %.02129.i.i.i = and i64 %.pn.i.i.i, %22
  %29 = getelementptr inbounds nuw %"struct.std::pair.162", ptr %27, i64 %.02129.i.i.i
  %30 = load ptr, ptr %29, align 8, !tbaa !102
  %31 = icmp eq ptr %30, %.sroa.0.0.copyload
  br i1 %31, label %_ZN4Luau7Compile14getGlobalStateERKNS_12DenseHashMapINS_7AstNameENS0_6GlobalESt4hashIS2_ESt8equal_toIS2_EEES2_.exit, label %32

32:                                               ; preds = %28
  %33 = icmp eq ptr %30, %17
  br i1 %33, label %_ZN4Luau7Compile14getGlobalStateERKNS_12DenseHashMapINS_7AstNameENS0_6GlobalESt4hashIS2_ESt8equal_toIS2_EEES2_.exit.thread, label %34

34:                                               ; preds = %32
  %35 = add i64 %.02028.i.i.i, 1
  %36 = add i64 %35, %.02129.i.i.i
  %.not.i.i.i = icmp ugt i64 %35, %22
  br i1 %.not.i.i.i, label %_ZN4Luau7Compile14getGlobalStateERKNS_12DenseHashMapINS_7AstNameENS0_6GlobalESt4hashIS2_ESt8equal_toIS2_EEES2_.exit.thread, label %28, !llvm.loop !222

_ZN4Luau7Compile14getGlobalStateERKNS_12DenseHashMapINS_7AstNameENS0_6GlobalESt4hashIS2_ESt8equal_toIS2_EEES2_.exit: ; preds = %28
  %37 = getelementptr inbounds nuw i8, ptr %29, i64 8
  %38 = load i32, ptr %37, align 4, !tbaa !223
  %39 = icmp ne i32 %38, 0
  %.not.i = icmp eq ptr %.sroa.0.0.copyload, null
  %or.cond = select i1 %39, i1 true, i1 %.not.i
  br i1 %or.cond, label %_ZNK4Luau7AstNameeqEPKc.exit12, label %_ZNK4Luau7AstNameeqEPKc.exit

_ZN4Luau7Compile14getGlobalStateERKNS_12DenseHashMapINS_7AstNameENS0_6GlobalESt4hashIS2_ESt8equal_toIS2_EEES2_.exit.thread: ; preds = %32, %34, %15, %10
  %.not.i.old = icmp eq ptr %.sroa.0.0.copyload, null
  br i1 %.not.i.old, label %_ZNK4Luau7AstNameeqEPKc.exit12, label %_ZNK4Luau7AstNameeqEPKc.exit

_ZNK4Luau7AstNameeqEPKc.exit:                     ; preds = %_ZN4Luau7Compile14getGlobalStateERKNS_12DenseHashMapINS_7AstNameENS0_6GlobalESt4hashIS2_ESt8equal_toIS2_EEES2_.exit, %_ZN4Luau7Compile14getGlobalStateERKNS_12DenseHashMapINS_7AstNameENS0_6GlobalESt4hashIS2_ESt8equal_toIS2_EEES2_.exit.thread
  %40 = tail call i32 @strcmp(ptr noundef nonnull dereferenceable(1) %.sroa.0.0.copyload, ptr noundef nonnull dereferenceable(7) @.str.61) #18
  %41 = icmp eq i32 %40, 0
  br i1 %41, label %42, label %_ZNK4Luau7AstNameeqEPKc.exit12

42:                                               ; preds = %_ZNK4Luau7AstNameeqEPKc.exit
  %43 = getelementptr inbounds nuw i8, ptr %1, i64 40
  %44 = load ptr, ptr %43, align 8, !tbaa !102
  %.not.i11 = icmp eq ptr %44, null
  br i1 %.not.i11, label %_ZNK4Luau7AstNameeqEPKc.exit12, label %45

45:                                               ; preds = %42
  %46 = tail call i32 @strcmp(ptr noundef nonnull dereferenceable(1) %44, ptr noundef nonnull dereferenceable(1) %2) #18
  %47 = icmp eq i32 %46, 0
  br label %_ZNK4Luau7AstNameeqEPKc.exit12

_ZNK4Luau7AstNameeqEPKc.exit12:                   ; preds = %_ZN4Luau7Compile14getGlobalStateERKNS_12DenseHashMapINS_7AstNameENS0_6GlobalESt4hashIS2_ESt8equal_toIS2_EEES2_.exit.thread, %45, %42, %3, %_ZN4Luau7Compile14getGlobalStateERKNS_12DenseHashMapINS_7AstNameENS0_6GlobalESt4hashIS2_ESt8equal_toIS2_EEES2_.exit, %_ZNK4Luau7AstNameeqEPKc.exit
  %spec.select = phi i1 [ false, %_ZNK4Luau7AstNameeqEPKc.exit ], [ false, %_ZN4Luau7Compile14getGlobalStateERKNS_12DenseHashMapINS_7AstNameENS0_6GlobalESt4hashIS2_ESt8equal_toIS2_EEES2_.exit ], [ false, %3 ], [ false, %42 ], [ %47, %45 ], [ false, %_ZN4Luau7Compile14getGlobalStateERKNS_12DenseHashMapINS_7AstNameENS0_6GlobalESt4hashIS2_ESt8equal_toIS2_EEES2_.exit.thread ]
  ret i1 %spec.select
}